target datalayout = "e-m:e-p270:32:32-p271:32:32-p272:64:64-i64:64-i128:128-f80:128-n8:16:32:64-S128"
target triple = "x86_64-pc-linux-gnu"

%struct.DdManager = type { %struct.DdNode, ptr, ptr, ptr, ptr, ptr, ptr, ptr, i32, i32, double, double, double, i32, i32, i32, i32, i32, i32, ptr, ptr, %struct.DdSubtable, i32, i32, i32, i32, i32, i32, i32, double, i32, i32, i32, ptr, i64, double, i32, ptr, ptr, ptr, ptr, ptr, ptr, ptr, i32, ptr, ptr, ptr, ptr, ptr, ptr, i32, i32, i32, double, i32, i32, i32, i32, double, double, i32, i32, i32, i32, i32, i32, i32, i32, i32, ptr, ptr, i32, i32, i32, i32, i32, i32, ptr, ptr, ptr, ptr, ptr, ptr, ptr, ptr, i32, i64, i64, i64, i32, i64, i64, double, double, double, double, double, double, i32, ptr, ptr, i64 }
%struct.DdNode = type { i32, i32, ptr, %union.anon, i64 }
%union.anon = type { %struct.DdChildren }
%struct.DdChildren = type { ptr, ptr }
%struct.DdSubtable = type { ptr, i32, i32, i32, i32, i32, i32, i32, i32, i32, i32, i32 }

@.str = private unnamed_addr constant [31 x i8] c"Cudd_SplitSet: out-of-memory.\0A\00", align 1

; Function Attrs: nounwind uwtable
define ptr @Cudd_SplitSet(ptr noundef %0, ptr noundef %1, ptr noundef %2, i32 noundef %3, double noundef %4) #0 {
  %6 = alloca ptr, align 8
  %7 = alloca ptr, align 8
  %8 = alloca ptr, align 8
  %9 = alloca ptr, align 8
  %10 = alloca i32, align 4
  %11 = alloca double, align 8
  %12 = alloca ptr, align 8
  %13 = alloca ptr, align 8
  %14 = alloca ptr, align 8
  %15 = alloca double, align 8
  %16 = alloca double, align 8
  %17 = alloca ptr, align 8
  %18 = alloca ptr, align 8
  %19 = alloca i32, align 4
  %20 = alloca i32, align 4
  %21 = alloca i32, align 4
  %22 = alloca i32, align 4
  store ptr %0, ptr %7, align 8, !tbaa !3
  store ptr %1, ptr %8, align 8, !tbaa !8
  store ptr %2, ptr %9, align 8, !tbaa !10
  store i32 %3, ptr %10, align 4, !tbaa !12
  store double %4, ptr %11, align 8, !tbaa !14
  call void @llvm.lifetime.start.p0(i64 8, ptr %12) #5
  call void @llvm.lifetime.start.p0(i64 8, ptr %13) #5
  call void @llvm.lifetime.start.p0(i64 8, ptr %14) #5
  call void @llvm.lifetime.start.p0(i64 8, ptr %15) #5
  call void @llvm.lifetime.start.p0(i64 8, ptr %16) #5
  call void @llvm.lifetime.start.p0(i64 8, ptr %17) #5
  call void @llvm.lifetime.start.p0(i64 8, ptr %18) #5
  call void @llvm.lifetime.start.p0(i64 4, ptr %19) #5
  call void @llvm.lifetime.start.p0(i64 4, ptr %20) #5
  call void @llvm.lifetime.start.p0(i64 4, ptr %21) #5
  %23 = load ptr, ptr %7, align 8, !tbaa !3
  %24 = getelementptr inbounds nuw %struct.DdManager, ptr %23, i32 0, i32 15
  %25 = load i32, ptr %24, align 8, !tbaa !16
  store i32 %25, ptr %21, align 4, !tbaa !12
  %26 = load ptr, ptr %7, align 8, !tbaa !3
  %27 = getelementptr inbounds nuw %struct.DdManager, ptr %26, i32 0, i32 1
  %28 = load ptr, ptr %27, align 8, !tbaa !30
  store ptr %28, ptr %14, align 8, !tbaa !8
  %29 = load ptr, ptr %14, align 8, !tbaa !8
  %30 = ptrtoint ptr %29 to i64
  %31 = xor i64 %30, 1
  %32 = inttoptr i64 %31 to ptr
  store ptr %32, ptr %13, align 8, !tbaa !8
  %33 = load double, ptr %11, align 8, !tbaa !14
  %34 = fcmp oeq double %33, 0.000000e+00
  br i1 %34, label %35, label %37

35:                                               ; preds = %5
  %36 = load ptr, ptr %13, align 8, !tbaa !8
  store ptr %36, ptr %6, align 8
  store i32 1, ptr %22, align 4
  br label %220

37:                                               ; preds = %5
  %38 = load ptr, ptr %8, align 8, !tbaa !8
  %39 = load ptr, ptr %13, align 8, !tbaa !8
  %40 = icmp eq ptr %38, %39
  br i1 %40, label %41, label %42

41:                                               ; preds = %37
  store ptr null, ptr %6, align 8
  store i32 1, ptr %22, align 4
  br label %220

42:                                               ; preds = %37
  %43 = load i32, ptr %10, align 4, !tbaa !12
  %44 = sitofp i32 %43 to double
  %45 = call double @pow(double noundef 2.000000e+00, double noundef %44) #5, !tbaa !12
  store double %45, ptr %15, align 8, !tbaa !14
  %46 = load double, ptr %11, align 8, !tbaa !14
  %47 = load double, ptr %15, align 8, !tbaa !14
  %48 = fcmp ogt double %46, %47
  br i1 %48, label %49, label %50

49:                                               ; preds = %42
  store ptr null, ptr %6, align 8
  store i32 1, ptr %22, align 4
  br label %220

50:                                               ; preds = %42
  br label %51

51:                                               ; preds = %206, %50
  %52 = load ptr, ptr %7, align 8, !tbaa !3
  %53 = getelementptr inbounds nuw %struct.DdManager, ptr %52, i32 0, i32 55
  store i32 0, ptr %53, align 8, !tbaa !31
  %54 = load i32, ptr %21, align 4, !tbaa !12
  %55 = sext i32 %54 to i64
  %56 = mul i64 4, %55
  %57 = call noalias ptr @malloc(i64 noundef %56) #6
  store ptr %57, ptr %18, align 8, !tbaa !32
  %58 = load ptr, ptr %18, align 8, !tbaa !32
  %59 = icmp eq ptr %58, null
  br i1 %59, label %60, label %63

60:                                               ; preds = %51
  %61 = load ptr, ptr %7, align 8, !tbaa !3
  %62 = getelementptr inbounds nuw %struct.DdManager, ptr %61, i32 0, i32 86
  store i32 1, ptr %62, align 8, !tbaa !33
  store ptr null, ptr %6, align 8
  store i32 1, ptr %22, align 4
  br label %220

63:                                               ; preds = %51
  store i32 0, ptr %19, align 4, !tbaa !12
  br label %64

64:                                               ; preds = %73, %63
  %65 = load i32, ptr %19, align 4, !tbaa !12
  %66 = load i32, ptr %21, align 4, !tbaa !12
  %67 = icmp slt i32 %65, %66
  br i1 %67, label %68, label %76

68:                                               ; preds = %64
  %69 = load ptr, ptr %18, align 8, !tbaa !32
  %70 = load i32, ptr %19, align 4, !tbaa !12
  %71 = sext i32 %70 to i64
  %72 = getelementptr inbounds i32, ptr %69, i64 %71
  store i32 -1, ptr %72, align 4, !tbaa !12
  br label %73

73:                                               ; preds = %68
  %74 = load i32, ptr %19, align 4, !tbaa !12
  %75 = add nsw i32 %74, 1
  store i32 %75, ptr %19, align 4, !tbaa !12
  br label %64, !llvm.loop !34

76:                                               ; preds = %64
  store i32 0, ptr %19, align 4, !tbaa !12
  br label %77

77:                                               ; preds = %99, %76
  %78 = load i32, ptr %19, align 4, !tbaa !12
  %79 = load i32, ptr %10, align 4, !tbaa !12
  %80 = icmp slt i32 %78, %79
  br i1 %80, label %81, label %102

81:                                               ; preds = %77
  %82 = load ptr, ptr %9, align 8, !tbaa !10
  %83 = load i32, ptr %19, align 4, !tbaa !12
  %84 = sext i32 %83 to i64
  %85 = getelementptr inbounds ptr, ptr %82, i64 %84
  %86 = load ptr, ptr %85, align 8, !tbaa !8
  %87 = getelementptr inbounds nuw %struct.DdNode, ptr %86, i32 0, i32 0
  %88 = load i32, ptr %87, align 8, !tbaa !36
  store i32 %88, ptr %20, align 4, !tbaa !12
  %89 = load ptr, ptr %18, align 8, !tbaa !32
  %90 = load ptr, ptr %7, align 8, !tbaa !3
  %91 = getelementptr inbounds nuw %struct.DdManager, ptr %90, i32 0, i32 39
  %92 = load ptr, ptr %91, align 8, !tbaa !37
  %93 = load i32, ptr %20, align 4, !tbaa !12
  %94 = sext i32 %93 to i64
  %95 = getelementptr inbounds i32, ptr %92, i64 %94
  %96 = load i32, ptr %95, align 4, !tbaa !12
  %97 = sext i32 %96 to i64
  %98 = getelementptr inbounds i32, ptr %89, i64 %97
  store i32 0, ptr %98, align 4, !tbaa !12
  br label %99

99:                                               ; preds = %81
  %100 = load i32, ptr %19, align 4, !tbaa !12
  %101 = add nsw i32 %100, 1
  store i32 %101, ptr %19, align 4, !tbaa !12
  br label %77, !llvm.loop !38

102:                                              ; preds = %77
  %103 = load ptr, ptr %8, align 8, !tbaa !8
  %104 = load ptr, ptr %14, align 8, !tbaa !8
  %105 = icmp eq ptr %103, %104
  br i1 %105, label %106, label %140

106:                                              ; preds = %102
  %107 = load double, ptr %11, align 8, !tbaa !14
  %108 = load double, ptr %15, align 8, !tbaa !14
  %109 = fcmp oeq double %107, %108
  br i1 %109, label %110, label %118

110:                                              ; preds = %106
  %111 = load ptr, ptr %18, align 8, !tbaa !32
  %112 = icmp ne ptr %111, null
  br i1 %112, label %113, label %115

113:                                              ; preds = %110
  %114 = load ptr, ptr %18, align 8, !tbaa !32
  call void @free(ptr noundef %114) #5
  store ptr null, ptr %18, align 8, !tbaa !32
  br label %116

115:                                              ; preds = %110
  br label %116

116:                                              ; preds = %115, %113
  %117 = load ptr, ptr %8, align 8, !tbaa !8
  store ptr %117, ptr %6, align 8
  store i32 1, ptr %22, align 4
  br label %220

118:                                              ; preds = %106
  %119 = load ptr, ptr %7, align 8, !tbaa !3
  %120 = load ptr, ptr %18, align 8, !tbaa !32
  %121 = load double, ptr %11, align 8, !tbaa !14
  %122 = call ptr @selectMintermsFromUniverse(ptr noundef %119, ptr noundef %120, double noundef %121)
  store ptr %122, ptr %12, align 8, !tbaa !8
  %123 = load ptr, ptr %12, align 8, !tbaa !8
  %124 = icmp ne ptr %123, null
  br i1 %124, label %125, label %133

125:                                              ; preds = %118
  %126 = load ptr, ptr %12, align 8, !tbaa !8
  %127 = ptrtoint ptr %126 to i64
  %128 = and i64 %127, -2
  %129 = inttoptr i64 %128 to ptr
  %130 = getelementptr inbounds nuw %struct.DdNode, ptr %129, i32 0, i32 1
  %131 = load i32, ptr %130, align 4, !tbaa !39
  %132 = add i32 %131, 1
  store i32 %132, ptr %130, align 4, !tbaa !39
  br label %133

133:                                              ; preds = %125, %118
  %134 = load ptr, ptr %18, align 8, !tbaa !32
  %135 = icmp ne ptr %134, null
  br i1 %135, label %136, label %138

136:                                              ; preds = %133
  %137 = load ptr, ptr %18, align 8, !tbaa !32
  call void @free(ptr noundef %137) #5
  store ptr null, ptr %18, align 8, !tbaa !32
  br label %139

138:                                              ; preds = %133
  br label %139

139:                                              ; preds = %138, %136
  br label %205

140:                                              ; preds = %102
  %141 = call ptr @st__init_table(ptr noundef @st__ptrcmp, ptr noundef @st__ptrhash)
  store ptr %141, ptr %17, align 8, !tbaa !40
  %142 = load ptr, ptr %17, align 8, !tbaa !40
  %143 = icmp eq ptr %142, null
  br i1 %143, label %144, label %157

144:                                              ; preds = %140
  %145 = load ptr, ptr %7, align 8, !tbaa !3
  %146 = getelementptr inbounds nuw %struct.DdManager, ptr %145, i32 0, i32 84
  %147 = load ptr, ptr %146, align 8, !tbaa !42
  %148 = call i32 (ptr, ptr, ...) @fprintf(ptr noundef %147, ptr noundef @.str) #5
  %149 = load ptr, ptr %18, align 8, !tbaa !32
  %150 = icmp ne ptr %149, null
  br i1 %150, label %151, label %153

151:                                              ; preds = %144
  %152 = load ptr, ptr %18, align 8, !tbaa !32
  call void @free(ptr noundef %152) #5
  store ptr null, ptr %18, align 8, !tbaa !32
  br label %154

153:                                              ; preds = %144
  br label %154

154:                                              ; preds = %153, %151
  %155 = load ptr, ptr %7, align 8, !tbaa !3
  %156 = getelementptr inbounds nuw %struct.DdManager, ptr %155, i32 0, i32 86
  store i32 1, ptr %156, align 8, !tbaa !33
  store ptr null, ptr %6, align 8
  store i32 1, ptr %22, align 4
  br label %220

157:                                              ; preds = %140
  %158 = load ptr, ptr %7, align 8, !tbaa !3
  %159 = load ptr, ptr %8, align 8, !tbaa !8
  %160 = load double, ptr %15, align 8, !tbaa !14
  %161 = load ptr, ptr %17, align 8, !tbaa !40
  %162 = call double @bddAnnotateMintermCount(ptr noundef %158, ptr noundef %159, double noundef %160, ptr noundef %161)
  store double %162, ptr %16, align 8, !tbaa !14
  %163 = load double, ptr %11, align 8, !tbaa !14
  %164 = load double, ptr %16, align 8, !tbaa !14
  %165 = fcmp oeq double %163, %164
  br i1 %165, label %166, label %177

166:                                              ; preds = %157
  %167 = load ptr, ptr %17, align 8, !tbaa !40
  %168 = call i32 @st__foreach(ptr noundef %167, ptr noundef @cuddStCountfree, ptr noundef null)
  %169 = load ptr, ptr %17, align 8, !tbaa !40
  call void @st__free_table(ptr noundef %169)
  %170 = load ptr, ptr %18, align 8, !tbaa !32
  %171 = icmp ne ptr %170, null
  br i1 %171, label %172, label %174

172:                                              ; preds = %166
  %173 = load ptr, ptr %18, align 8, !tbaa !32
  call void @free(ptr noundef %173) #5
  store ptr null, ptr %18, align 8, !tbaa !32
  br label %175

174:                                              ; preds = %166
  br label %175

175:                                              ; preds = %174, %172
  %176 = load ptr, ptr %8, align 8, !tbaa !8
  store ptr %176, ptr %6, align 8
  store i32 1, ptr %22, align 4
  br label %220

177:                                              ; preds = %157
  %178 = load ptr, ptr %7, align 8, !tbaa !3
  %179 = load ptr, ptr %17, align 8, !tbaa !40
  %180 = load ptr, ptr %18, align 8, !tbaa !32
  %181 = load ptr, ptr %8, align 8, !tbaa !8
  %182 = load double, ptr %11, align 8, !tbaa !14
  %183 = load double, ptr %15, align 8, !tbaa !14
  %184 = call ptr @cuddSplitSetRecur(ptr noundef %178, ptr noundef %179, ptr noundef %180, ptr noundef %181, double noundef %182, double noundef %183, i32 noundef 0)
  store ptr %184, ptr %12, align 8, !tbaa !8
  %185 = load ptr, ptr %12, align 8, !tbaa !8
  %186 = icmp ne ptr %185, null
  br i1 %186, label %187, label %195

187:                                              ; preds = %177
  %188 = load ptr, ptr %12, align 8, !tbaa !8
  %189 = ptrtoint ptr %188 to i64
  %190 = and i64 %189, -2
  %191 = inttoptr i64 %190 to ptr
  %192 = getelementptr inbounds nuw %struct.DdNode, ptr %191, i32 0, i32 1
  %193 = load i32, ptr %192, align 4, !tbaa !39
  %194 = add i32 %193, 1
  store i32 %194, ptr %192, align 4, !tbaa !39
  br label %195

195:                                              ; preds = %187, %177
  %196 = load ptr, ptr %17, align 8, !tbaa !40
  %197 = call i32 @st__foreach(ptr noundef %196, ptr noundef @cuddStCountfree, ptr noundef null)
  %198 = load ptr, ptr %17, align 8, !tbaa !40
  call void @st__free_table(ptr noundef %198)
  %199 = load ptr, ptr %18, align 8, !tbaa !32
  %200 = icmp ne ptr %199, null
  br i1 %200, label %201, label %203

201:                                              ; preds = %195
  %202 = load ptr, ptr %18, align 8, !tbaa !32
  call void @free(ptr noundef %202) #5
  store ptr null, ptr %18, align 8, !tbaa !32
  br label %204

203:                                              ; preds = %195
  br label %204

204:                                              ; preds = %203, %201
  br label %205

205:                                              ; preds = %204, %139
  br label %206

206:                                              ; preds = %205
  %207 = load ptr, ptr %7, align 8, !tbaa !3
  %208 = getelementptr inbounds nuw %struct.DdManager, ptr %207, i32 0, i32 55
  %209 = load i32, ptr %208, align 8, !tbaa !31
  %210 = icmp eq i32 %209, 1
  br i1 %210, label %51, label %211, !llvm.loop !43

211:                                              ; preds = %206
  %212 = load ptr, ptr %12, align 8, !tbaa !8
  %213 = ptrtoint ptr %212 to i64
  %214 = and i64 %213, -2
  %215 = inttoptr i64 %214 to ptr
  %216 = getelementptr inbounds nuw %struct.DdNode, ptr %215, i32 0, i32 1
  %217 = load i32, ptr %216, align 4, !tbaa !39
  %218 = add i32 %217, -1
  store i32 %218, ptr %216, align 4, !tbaa !39
  %219 = load ptr, ptr %12, align 8, !tbaa !8
  store ptr %219, ptr %6, align 8
  store i32 1, ptr %22, align 4
  br label %220

220:                                              ; preds = %211, %175, %154, %116, %60, %49, %41, %35
  call void @llvm.lifetime.end.p0(i64 4, ptr %21) #5
  call void @llvm.lifetime.end.p0(i64 4, ptr %20) #5
  call void @llvm.lifetime.end.p0(i64 4, ptr %19) #5
  call void @llvm.lifetime.end.p0(i64 8, ptr %18) #5
  call void @llvm.lifetime.end.p0(i64 8, ptr %17) #5
  call void @llvm.lifetime.end.p0(i64 8, ptr %16) #5
  call void @llvm.lifetime.end.p0(i64 8, ptr %15) #5
  call void @llvm.lifetime.end.p0(i64 8, ptr %14) #5
  call void @llvm.lifetime.end.p0(i64 8, ptr %13) #5
  call void @llvm.lifetime.end.p0(i64 8, ptr %12) #5
  %221 = load ptr, ptr %6, align 8
  ret ptr %221
}