; Function Attrs: nounwind uwtable
define ptr @Cudd_SplitSet(ptr noundef %0, ptr noundef %1, ptr noundef readonly captures(none) %2, i32 noundef %3, double noundef %4) local_unnamed_addr #0 {
  %6 = getelementptr inbounds nuw i8, ptr %0, i64 136
  %7 = load i32, ptr %6, align 8, !tbaa !3
  %8 = getelementptr inbounds nuw i8, ptr %0, i64 40
  %9 = load ptr, ptr %8, align 8, !tbaa !24
  %.fr98 = freeze ptr %9
  %10 = ptrtoint ptr %.fr98 to i64
  %11 = xor i64 %10, 1
  %12 = inttoptr i64 %11 to ptr
  %13 = fcmp oeq double %4, 0.000000e+00
  br i1 %13, label %.split93.us, label %14

14:                                               ; preds = %5
  %15 = icmp eq ptr %1, %12
  br i1 %15, label %.split93.us, label %16

16:                                               ; preds = %14
  %ldexp = tail call double @ldexp(double 1.000000e+00, i32 %3) #8
  %ldexp.fr = freeze double %ldexp
  %17 = fcmp ogt double %4, %ldexp.fr
  br i1 %17, label %.split93.us, label %.preheader82

.preheader82:                                     ; preds = %16
  %18 = getelementptr inbounds nuw i8, ptr %0, i64 448
  %19 = sext i32 %7 to i64
  %20 = shl nsw i64 %19, 2
  %21 = icmp sgt i32 %7, 0
  %22 = icmp sgt i32 %3, 0
  %23 = getelementptr inbounds nuw i8, ptr %0, i64 328
  %24 = icmp eq ptr %1, %.fr98
  br i1 %24, label %.preheader82.split.us, label %.preheader82.split.preheader

.preheader82.split.preheader:                     ; preds = %.preheader82
  %25 = zext i32 %7 to i64
  %26 = shl nuw nsw i64 %25, 2
  %wide.trip.count = zext nneg i32 %3 to i64
  br label %.preheader82.split

.preheader82.split.us:                            ; preds = %.preheader82
  %27 = fcmp oeq double %4, %ldexp.fr
  br i1 %27, label %.preheader81.us.us, label %.preheader82.split.us.split.preheader

.preheader82.split.us.split.preheader:            ; preds = %.preheader82.split.us
  %28 = zext i32 %7 to i64
  %29 = shl nuw nsw i64 %28, 2
  %wide.trip.count117 = zext nneg i32 %3 to i64
  br label %.preheader82.split.us.split

.preheader81.us.us:                               ; preds = %.preheader82.split.us
  store i32 0, ptr %18, align 8, !tbaa !25
  br label %.split93.us

.preheader82.split.us.split:                      ; preds = %.preheader82.split.us.split.preheader, %40
  store i32 0, ptr %18, align 8, !tbaa !25
  %30 = tail call noalias ptr @malloc(i64 noundef %20) #9
  %31 = icmp eq ptr %30, null
  br i1 %31, label %.split.us, label %.preheader81.us

._crit_edge.us:                                   ; preds = %43, %.preheader.us
  %32 = tail call fastcc ptr @selectMintermsFromUniverse(ptr noundef %0, ptr noundef nonnull %30, double noundef %4)
  %.not80.us = icmp eq ptr %32, null
  br i1 %.not80.us, label %40, label %33

33:                                               ; preds = %._crit_edge.us
  %34 = ptrtoint ptr %32 to i64
  %35 = and i64 %34, -2
  %36 = inttoptr i64 %35 to ptr
  %37 = getelementptr inbounds nuw i8, ptr %36, i64 4
  %38 = load i32, ptr %37, align 4, !tbaa !26
  %39 = add i32 %38, 1
  store i32 %39, ptr %37, align 4, !tbaa !26
  br label %40

40:                                               ; preds = %33, %._crit_edge.us
  tail call void @free(ptr noundef nonnull %30) #8
  %41 = load i32, ptr %18, align 8, !tbaa !25
  %42 = icmp eq i32 %41, 1
  br i1 %42, label %.preheader82.split.us.split, label %.split95.us, !llvm.loop !27

43:                                               ; preds = %.lr.ph91.us, %43
  %indvars.iv114 = phi i64 [ 0, %.lr.ph91.us ], [ %indvars.iv.next115, %43 ]
  %44 = getelementptr inbounds nuw ptr, ptr %2, i64 %indvars.iv114
  %45 = load ptr, ptr %44, align 8, !tbaa !29
  %46 = load i32, ptr %45, align 8, !tbaa !30
  %47 = sext i32 %46 to i64
  %48 = getelementptr inbounds i32, ptr %52, i64 %47
  %49 = load i32, ptr %48, align 4, !tbaa !31
  %50 = sext i32 %49 to i64
  %51 = getelementptr inbounds i32, ptr %30, i64 %50
  store i32 0, ptr %51, align 4, !tbaa !31
  %indvars.iv.next115 = add nuw nsw i64 %indvars.iv114, 1
  %exitcond118.not = icmp eq i64 %indvars.iv.next115, %wide.trip.count117
  br i1 %exitcond118.not, label %._crit_edge.us, label %43, !llvm.loop !32

.preheader.us:                                    ; preds = %.lr.ph.us.preheader, %.preheader81.us
  br i1 %22, label %.lr.ph91.us, label %._crit_edge.us

.preheader81.us:                                  ; preds = %.preheader82.split.us.split
  br i1 %21, label %.lr.ph.us.preheader, label %.preheader.us

.lr.ph.us.preheader:                              ; preds = %.preheader81.us
  tail call void @llvm.memset.p0.i64(ptr nonnull align 4 %30, i8 -1, i64 %29, i1 false), !tbaa !31
  br label %.preheader.us

.lr.ph91.us:                                      ; preds = %.preheader.us
  %52 = load ptr, ptr %23, align 8, !tbaa !33
  br label %43

.preheader82.split:                               ; preds = %.preheader82.split.preheader, %87
  store i32 0, ptr %18, align 8, !tbaa !25
  %53 = tail call noalias ptr @malloc(i64 noundef %20) #9
  %54 = icmp eq ptr %53, null
  br i1 %54, label %.split.us, label %.preheader81

.preheader81:                                     ; preds = %.preheader82.split
  br i1 %21, label %.lr.ph.preheader, label %.preheader

.lr.ph.preheader:                                 ; preds = %.preheader81
  tail call void @llvm.memset.p0.i64(ptr nonnull align 4 %53, i8 -1, i64 %26, i1 false), !tbaa !31
  br label %.preheader

.split.us:                                        ; preds = %.preheader82.split, %.preheader82.split.us.split
  %55 = getelementptr inbounds nuw i8, ptr %0, i64 624
  store i32 1, ptr %55, align 8, !tbaa !34
  br label %.split93.us

.preheader:                                       ; preds = %.lr.ph.preheader, %.preheader81
  br i1 %22, label %.lr.ph91, label %._crit_edge

.lr.ph91:                                         ; preds = %.preheader
  %56 = load ptr, ptr %23, align 8, !tbaa !33
  br label %57

57:                                               ; preds = %.lr.ph91, %57
  %indvars.iv = phi i64 [ 0, %.lr.ph91 ], [ %indvars.iv.next, %57 ]
  %58 = getelementptr inbounds nuw ptr, ptr %2, i64 %indvars.iv
  %59 = load ptr, ptr %58, align 8, !tbaa !29
  %60 = load i32, ptr %59, align 8, !tbaa !30
  %61 = sext i32 %60 to i64
  %62 = getelementptr inbounds i32, ptr %56, i64 %61
  %63 = load i32, ptr %62, align 4, !tbaa !31
  %64 = sext i32 %63 to i64
  %65 = getelementptr inbounds i32, ptr %53, i64 %64
  store i32 0, ptr %65, align 4, !tbaa !31
  %indvars.iv.next = add nuw nsw i64 %indvars.iv, 1
  %exitcond.not = icmp eq i64 %indvars.iv.next, %wide.trip.count
  br i1 %exitcond.not, label %._crit_edge, label %57, !llvm.loop !32

._crit_edge:                                      ; preds = %57, %.preheader
  %66 = tail call ptr @st__init_table(ptr noundef nonnull @st__ptrcmp, ptr noundef nonnull @st__ptrhash) #8
  %67 = icmp eq ptr %66, null
  br i1 %67, label %68, label %73

68:                                               ; preds = %._crit_edge
  %69 = getelementptr inbounds nuw i8, ptr %0, i64 608
  %70 = load ptr, ptr %69, align 8, !tbaa !35
  %71 = tail call i64 @fwrite(ptr nonnull @.str, i64 30, i64 1, ptr %70)
  tail call void @free(ptr noundef nonnull %53) #8
  %72 = getelementptr inbounds nuw i8, ptr %0, i64 624
  store i32 1, ptr %72, align 8, !tbaa !34
  br label %.split93.us

73:                                               ; preds = %._crit_edge
  %74 = tail call fastcc double @bddAnnotateMintermCount(ptr noundef %0, ptr noundef %1, double noundef %ldexp.fr, ptr noundef %66)
  %75 = fcmp oeq double %4, %74
  br i1 %75, label %76, label %78

76:                                               ; preds = %73
  %77 = tail call i32 @st__foreach(ptr noundef nonnull %66, ptr noundef nonnull @cuddStCountfree, ptr noundef null) #8
  tail call void @st__free_table(ptr noundef nonnull %66) #8
  tail call void @free(ptr noundef nonnull %53) #8
  br label %.split93.us

78:                                               ; preds = %73
  %79 = tail call ptr @cuddSplitSetRecur(ptr noundef %0, ptr noundef nonnull %66, ptr noundef nonnull %53, ptr noundef %1, double noundef %4, double noundef %ldexp.fr, i32 noundef 0)
  %.not = icmp eq ptr %79, null
  br i1 %.not, label %87, label %80

80:                                               ; preds = %78
  %81 = ptrtoint ptr %79 to i64
  %82 = and i64 %81, -2
  %83 = inttoptr i64 %82 to ptr
  %84 = getelementptr inbounds nuw i8, ptr %83, i64 4
  %85 = load i32, ptr %84, align 4, !tbaa !26
  %86 = add i32 %85, 1
  store i32 %86, ptr %84, align 4, !tbaa !26
  br label %87

87:                                               ; preds = %80, %78
  %88 = tail call i32 @st__foreach(ptr noundef nonnull %66, ptr noundef nonnull @cuddStCountfree, ptr noundef null) #8
  tail call void @st__free_table(ptr noundef nonnull %66) #8
  tail call void @free(ptr noundef nonnull %53) #8
  %89 = load i32, ptr %18, align 8, !tbaa !25
  %90 = icmp eq i32 %89, 1
  br i1 %90, label %.preheader82.split, label %.split95.us, !llvm.loop !27

.split95.us:                                      ; preds = %87, %40
  %.us-phi96 = phi ptr [ %32, %40 ], [ %79, %87 ]
  %91 = ptrtoint ptr %.us-phi96 to i64
  %92 = and i64 %91, -2
  %93 = inttoptr i64 %92 to ptr
  %94 = getelementptr inbounds nuw i8, ptr %93, i64 4
  %95 = load i32, ptr %94, align 4, !tbaa !26
  %96 = add i32 %95, -1
  store i32 %96, ptr %94, align 4, !tbaa !26
  br label %.split93.us

.split93.us:                                      ; preds = %.preheader81.us.us, %16, %14, %5, %.split95.us, %76, %68, %.split.us
  %.0 = phi ptr [ null, %.split.us ], [ %.us-phi96, %.split95.us ], [ null, %68 ], [ %1, %76 ], [ %12, %5 ], [ null, %14 ], [ null, %16 ], [ %1, %.preheader81.us.us ]
  ret ptr %.0
}